; Function Attrs: mustprogress nounwind uwtable
define hidden noundef i32 @_ZN8JvmtiEnv15InterruptThreadEP8_jobject(ptr nocapture noundef nonnull readnone align 8 dereferenceable(460) %0, ptr noundef %1) local_unnamed_addr #0 align 2 {
  %3 = alloca %class.HandleMark, align 8
  %4 = alloca %class.JvmtiVTMSTransitionDisabler, align 8
  %5 = alloca %class.ThreadsListHandle, align 8
  %6 = alloca ptr, align 8
  %7 = alloca ptr, align 8
  %8 = alloca %class.JavaValue, align 8
  %9 = tail call align 8 ptr @llvm.threadlocal.address.p0(ptr align 8 @_ZN6Thread12_thr_currentE)
  %10 = load ptr, ptr %9, align 8
  call void @_ZN10HandleMark10initializeEP6Thread(ptr noundef nonnull align 8 dereferenceable(56) %3, ptr noundef %10) #17
  call void @_ZN27JvmtiVTMSTransitionDisablerC1EP8_jobject(ptr noundef nonnull align 8 dereferenceable(16) %4, ptr noundef %1) #17
  call void @_ZN17ThreadsListHandleC1EP6Thread(ptr noundef nonnull align 8 dereferenceable(56) %5, ptr noundef %10) #17
  store ptr null, ptr %6, align 8
  store ptr null, ptr %7, align 8
  %11 = getelementptr inbounds i8, ptr %5, i64 16
  %12 = load ptr, ptr %11, align 8
  %13 = call noundef i32 @_ZN12JvmtiEnvBase28get_threadOop_and_JavaThreadEP11ThreadsListP8_jobjectP10JavaThreadPS5_PP7oopDesc(ptr noundef %12, ptr noundef %1, ptr noundef %10, ptr noundef nonnull %6, ptr noundef nonnull %7) #17
  %.not = icmp eq i32 %13, 0
  br i1 %.not, label %14, label %39

14:                                               ; preds = %2
  %15 = load ptr, ptr %7, align 8
  %16 = call noundef zeroext i1 @_ZN23java_lang_VirtualThread11is_instanceEP7oopDesc(ptr noundef %15) #17
  %17 = load ptr, ptr %7, align 8
  br i1 %16, label %18, label %37

18:                                               ; preds = %14
  %19 = icmp eq ptr %17, null
  br i1 %19, label %_ZN6HandleC2EP6ThreadP7oopDesc.exit, label %20

20:                                               ; preds = %18
  %21 = getelementptr inbounds i8, ptr %10, i64 808
  %22 = load ptr, ptr %21, align 8
  %23 = getelementptr inbounds i8, ptr %22, i64 40
  %24 = load ptr, ptr %23, align 8
  %25 = getelementptr inbounds i8, ptr %22, i64 32
  %26 = load ptr, ptr %25, align 8
  %27 = ptrtoint ptr %24 to i64
  %28 = ptrtoint ptr %26 to i64
  %29 = sub i64 %27, %28
  %.not.i.i.i.i = icmp ult i64 %29, 8
  br i1 %.not.i.i.i.i, label %32, label %30

30:                                               ; preds = %20
  %31 = getelementptr inbounds i8, ptr %26, i64 8
  store ptr %31, ptr %25, align 8
  br label %_ZN10HandleArea15allocate_handleEP7oopDesc.exit.i

32:                                               ; preds = %20
  %33 = call noundef ptr @_ZN5Arena4growEmN17AllocFailStrategy13AllocFailEnumE(ptr noundef nonnull align 8 dereferenceable(48) %22, i64 noundef 8, i32 noundef 0) #17
  br label %_ZN10HandleArea15allocate_handleEP7oopDesc.exit.i

_ZN10HandleArea15allocate_handleEP7oopDesc.exit.i: ; preds = %32, %30
  %.0.i.i.i.i = phi ptr [ %26, %30 ], [ %33, %32 ]
  store ptr %17, ptr %.0.i.i.i.i, align 8
  br label %_ZN6HandleC2EP6ThreadP7oopDesc.exit

_ZN6HandleC2EP6ThreadP7oopDesc.exit:              ; preds = %18, %_ZN10HandleArea15allocate_handleEP7oopDesc.exit.i
  %storemerge.i = phi ptr [ %.0.i.i.i.i, %_ZN10HandleArea15allocate_handleEP7oopDesc.exit.i ], [ null, %18 ]
  store i8 14, ptr %8, align 8
  %34 = load ptr, ptr getelementptr inbounds (i8, ptr @_ZN9vmClasses8_klassesE, i64 264), align 8
  %35 = load ptr, ptr getelementptr inbounds (i8, ptr @_ZN6Symbol11_vm_symbolsE, i64 3152), align 8
  %36 = load ptr, ptr getelementptr inbounds (i8, ptr @_ZN6Symbol11_vm_symbolsE, i64 6752), align 8
  call void @_ZN9JavaCalls12call_virtualEP9JavaValue6HandleP5KlassP6SymbolS6_P10JavaThread(ptr noundef nonnull %8, ptr %storemerge.i, ptr noundef %34, ptr noundef %35, ptr noundef %36, ptr noundef %10) #17
  br label %39

37:                                               ; preds = %14
  call void @_ZN16java_lang_Thread15set_interruptedEP7oopDescb(ptr noundef %17, i1 noundef zeroext true) #17
  %38 = load ptr, ptr %6, align 8
  call void @_ZN10JavaThread9interruptEv(ptr noundef nonnull align 8 dereferenceable(1800) %38) #17
  br label %39

39:                                               ; preds = %2, %37, %_ZN6HandleC2EP6ThreadP7oopDesc.exit
  call void @_ZN17ThreadsListHandleD1Ev(ptr noundef nonnull align 8 dereferenceable(56) %5) #17
  call void @_ZN27JvmtiVTMSTransitionDisablerD1Ev(ptr noundef nonnull align 8 dereferenceable(16) %4) #17
  call void @_ZN10HandleMarkD1Ev(ptr noundef nonnull align 8 dereferenceable(56) %3) #17
  ret i32 %13
}